; Function Attrs: nounwind uwtable
define range(i32 -171, 1) i32 @pmix_register_client_attrs() local_unnamed_addr #0 {
  %.b11 = load i1, ptr @client_attrs_regd, align 1
  br i1 %.b11, label %.loopexit, label %1

1:                                                ; preds = %0
  store i1 true, ptr @client_attrs_regd, align 1
  br label %6

2:                                                ; preds = %6
  %3 = add nuw nsw i64 %.0713, 1
  %4 = getelementptr inbounds nuw [71 x %struct.pmix_attr_init_t], ptr @client_fns, i64 0, i64 %3
  %5 = load ptr, ptr %4, align 16, !tbaa !74
  %exitcond = icmp eq i64 %3, 70
  br i1 %exitcond, label %.loopexit, label %6, !llvm.loop !76

6:                                                ; preds = %1, %2
  %7 = phi ptr [ @.str.31, %1 ], [ %5, %2 ]
  %8 = phi ptr [ @client_fns, %1 ], [ %4, %2 ]
  %.0713 = phi i64 [ 0, %1 ], [ %3, %2 ]
  %9 = getelementptr inbounds nuw i8, ptr %8, i64 8
  %10 = load ptr, ptr %9, align 8, !tbaa !77
  %11 = tail call fastcc i32 @process_reg(ptr noundef nonnull @.str.1, ptr noundef nonnull %7, ptr noundef %10)
  %.not12 = icmp eq i32 %11, 0
  br i1 %.not12, label %2, label %.loopexit

.loopexit:                                        ; preds = %2, %6, %0
  %.08 = phi i32 [ 0, %0 ], [ 0, %2 ], [ %11, %6 ]
  ret i32 %.08
}